target datalayout = "e-m:e-p270:32:32-p271:32:32-p272:64:64-i64:64-i128:128-f80:128-n8:16:32:64-S128"
target triple = "x86_64-pc-linux-gnu"

%struct.pm_lex_mode = type { i32, %union.anon, ptr }
%union.anon = type { %struct.anon.3 }
%struct.anon.3 = type { %struct.pm_heredoc_lex_mode_t, ptr, ptr, i8 }
%struct.pm_heredoc_lex_mode_t = type { ptr, i64, i32, i32 }
%struct.pm_parser = type { i32, i32, i32, i32, i32, i32, i32, %struct.anon, ptr, ptr, %struct.pm_token_t, %struct.pm_token_t, ptr, ptr, %struct.pm_list_t, %struct.pm_list_t, %struct.pm_location_t, %struct.pm_list_t, %struct.pm_list_t, ptr, ptr, ptr, ptr, ptr, ptr, ptr, %struct.pm_string_t, %struct.pm_constant_pool_t, %struct.pm_newline_list_t, i16, %struct.pm_string_t, i32, ptr, ptr, i32, i8, i8, i8, i8, i8, i8, i8, i8, i8, i8, i8, i8, i8 }
%struct.anon = type { ptr, [4 x %struct.pm_lex_mode], i64 }
%struct.pm_token_t = type { i32, ptr, ptr }
%struct.pm_location_t = type { ptr, ptr }
%struct.pm_list_t = type { i64, ptr, ptr }
%struct.pm_constant_pool_t = type { ptr, ptr, i32, i32 }
%struct.pm_newline_list_t = type { ptr, i64, i64, ptr }
%struct.pm_string_t = type { ptr, i64, i32 }
%struct.pm_node = type { i16, i16, i32, %struct.pm_location_t }
%struct.pm_defined_node = type { %struct.pm_node, %struct.pm_location_t, ptr, %struct.pm_location_t, %struct.pm_location_t }

@stderr = external global ptr, align 8
@.str.94 = private unnamed_addr constant [29 x i8] c"Failed to allocate %d bytes\0A\00", align 1

; Function Attrs: inlinehint nounwind sspstrong uwtable
define internal ptr @pm_node_alloc(ptr noundef %0, i64 noundef %1) #7 {
  %3 = alloca ptr, align 8
  %4 = alloca i64, align 8
  %5 = alloca ptr, align 8
  store ptr %0, ptr %3, align 8, !tbaa !7
  store i64 %1, ptr %4, align 8, !tbaa !14
  call void @llvm.lifetime.start.p0(i64 8, ptr %5) #15
  %6 = load i64, ptr %4, align 8, !tbaa !14
  %7 = call noalias ptr @calloc(i64 noundef 1, i64 noundef %6) #18
  store ptr %7, ptr %5, align 8, !tbaa !57
  %8 = load ptr, ptr %5, align 8, !tbaa !57
  %9 = icmp eq ptr %8, null
  br i1 %9, label %10, label %15

10:                                               ; preds = %2
  %11 = load ptr, ptr @stderr, align 8, !tbaa !452
  %12 = load i64, ptr %4, align 8, !tbaa !14
  %13 = trunc i64 %12 to i32
  %14 = call i32 (ptr, i32, ptr, ...) @__fprintf_chk(ptr noundef %11, i32 noundef 1, ptr noundef @.str.94, i32 noundef %13)
  call void @abort() #19
  unreachable

15:                                               ; preds = %2
  %16 = load ptr, ptr %5, align 8, !tbaa !57
  call void @llvm.lifetime.end.p0(i64 8, ptr %5) #15
  ret ptr %16
}

; Function Attrs: nounwind sspstrong uwtable
define internal ptr @pm_defined_node_create(ptr noundef %0, ptr noundef %1, ptr noundef %2, ptr noundef %3, ptr noundef %4) #0 {
  %6 = alloca ptr, align 8
  %7 = alloca ptr, align 8
  %8 = alloca ptr, align 8
  %9 = alloca ptr, align 8
  %10 = alloca ptr, align 8
  %11 = alloca ptr, align 8
  %12 = alloca %struct.pm_defined_node, align 8
  store ptr %0, ptr %6, align 8, !tbaa !7
  store ptr %1, ptr %7, align 8, !tbaa !57
  store ptr %2, ptr %8, align 8, !tbaa !128
  store ptr %3, ptr %9, align 8, !tbaa !57
  store ptr %4, ptr %10, align 8, !tbaa !57
  call void @llvm.lifetime.start.p0(i64 8, ptr %11) #15
  %13 = load ptr, ptr %6, align 8, !tbaa !7
  %14 = call ptr @pm_node_alloc(ptr noundef %13, i64 noundef 80)
  store ptr %14, ptr %11, align 8, !tbaa !722
  %15 = load ptr, ptr %11, align 8, !tbaa !722
  %16 = getelementptr inbounds nuw %struct.pm_defined_node, ptr %12, i32 0, i32 0
  %17 = getelementptr inbounds nuw %struct.pm_node, ptr %16, i32 0, i32 0
  store i16 46, ptr %17, align 8, !tbaa !206
  %18 = getelementptr inbounds nuw %struct.pm_node, ptr %16, i32 0, i32 1
  store i16 0, ptr %18, align 2, !tbaa !222
  %19 = getelementptr inbounds nuw %struct.pm_node, ptr %16, i32 0, i32 2
  %20 = load ptr, ptr %6, align 8, !tbaa !7
  %21 = getelementptr inbounds nuw %struct.pm_parser, ptr %20, i32 0, i32 0
  %22 = load i32, ptr %21, align 8, !tbaa !238
  %23 = add i32 %22, 1
  store i32 %23, ptr %21, align 8, !tbaa !238
  store i32 %23, ptr %19, align 4, !tbaa !239
  %24 = getelementptr inbounds nuw %struct.pm_node, ptr %16, i32 0, i32 3
  %25 = getelementptr inbounds nuw %struct.pm_location_t, ptr %24, i32 0, i32 0
  %26 = load ptr, ptr %10, align 8, !tbaa !57
  %27 = getelementptr inbounds nuw %struct.pm_location_t, ptr %26, i32 0, i32 0
  %28 = load ptr, ptr %27, align 8, !tbaa !152
  store ptr %28, ptr %25, align 8, !tbaa !152
  %29 = getelementptr inbounds nuw %struct.pm_location_t, ptr %24, i32 0, i32 1
  %30 = load ptr, ptr %9, align 8, !tbaa !57
  %31 = getelementptr inbounds nuw %struct.pm_token_t, ptr %30, i32 0, i32 0
  %32 = load i32, ptr %31, align 8, !tbaa !42
  %33 = icmp eq i32 %32, 3
  br i1 %33, label %34, label %39

34:                                               ; preds = %5
  %35 = load ptr, ptr %8, align 8, !tbaa !128
  %36 = getelementptr inbounds nuw %struct.pm_node, ptr %35, i32 0, i32 3
  %37 = getelementptr inbounds nuw %struct.pm_location_t, ptr %36, i32 0, i32 1
  %38 = load ptr, ptr %37, align 8, !tbaa !224
  br label %43

39:                                               ; preds = %5
  %40 = load ptr, ptr %9, align 8, !tbaa !57
  %41 = getelementptr inbounds nuw %struct.pm_token_t, ptr %40, i32 0, i32 2
  %42 = load ptr, ptr %41, align 8, !tbaa !44
  br label %43

43:                                               ; preds = %39, %34
  %44 = phi ptr [ %38, %34 ], [ %42, %39 ]
  store ptr %44, ptr %29, align 8, !tbaa !153
  %45 = getelementptr inbounds nuw %struct.pm_defined_node, ptr %12, i32 0, i32 1
  %46 = load ptr, ptr %7, align 8, !tbaa !57
  %47 = getelementptr inbounds nuw %struct.pm_token_t, ptr %46, i32 0, i32 0
  %48 = load i32, ptr %47, align 8, !tbaa !42
  %49 = icmp eq i32 %48, 3
  br i1 %49, label %50, label %53

50:                                               ; preds = %43
  %51 = getelementptr inbounds nuw %struct.pm_location_t, ptr %45, i32 0, i32 0
  store ptr null, ptr %51, align 8, !tbaa !152
  %52 = getelementptr inbounds nuw %struct.pm_location_t, ptr %45, i32 0, i32 1
  store ptr null, ptr %52, align 8, !tbaa !153
  br label %62

53:                                               ; preds = %43
  %54 = getelementptr inbounds nuw %struct.pm_location_t, ptr %45, i32 0, i32 0
  %55 = load ptr, ptr %7, align 8, !tbaa !57
  %56 = getelementptr inbounds nuw %struct.pm_token_t, ptr %55, i32 0, i32 1
  %57 = load ptr, ptr %56, align 8, !tbaa !43
  store ptr %57, ptr %54, align 8, !tbaa !152
  %58 = getelementptr inbounds nuw %struct.pm_location_t, ptr %45, i32 0, i32 1
  %59 = load ptr, ptr %7, align 8, !tbaa !57
  %60 = getelementptr inbounds nuw %struct.pm_token_t, ptr %59, i32 0, i32 2
  %61 = load ptr, ptr %60, align 8, !tbaa !44
  store ptr %61, ptr %58, align 8, !tbaa !153
  br label %62

62:                                               ; preds = %53, %50
  %63 = getelementptr inbounds nuw %struct.pm_defined_node, ptr %12, i32 0, i32 2
  %64 = load ptr, ptr %8, align 8, !tbaa !128
  store ptr %64, ptr %63, align 8, !tbaa !724
  %65 = getelementptr inbounds nuw %struct.pm_defined_node, ptr %12, i32 0, i32 3
  %66 = load ptr, ptr %9, align 8, !tbaa !57
  %67 = getelementptr inbounds nuw %struct.pm_token_t, ptr %66, i32 0, i32 0
  %68 = load i32, ptr %67, align 8, !tbaa !42
  %69 = icmp eq i32 %68, 3
  br i1 %69, label %70, label %73

70:                                               ; preds = %62
  %71 = getelementptr inbounds nuw %struct.pm_location_t, ptr %65, i32 0, i32 0
  store ptr null, ptr %71, align 8, !tbaa !152
  %72 = getelementptr inbounds nuw %struct.pm_location_t, ptr %65, i32 0, i32 1
  store ptr null, ptr %72, align 8, !tbaa !153
  br label %82

73:                                               ; preds = %62
  %74 = getelementptr inbounds nuw %struct.pm_location_t, ptr %65, i32 0, i32 0
  %75 = load ptr, ptr %9, align 8, !tbaa !57
  %76 = getelementptr inbounds nuw %struct.pm_token_t, ptr %75, i32 0, i32 1
  %77 = load ptr, ptr %76, align 8, !tbaa !43
  store ptr %77, ptr %74, align 8, !tbaa !152
  %78 = getelementptr inbounds nuw %struct.pm_location_t, ptr %65, i32 0, i32 1
  %79 = load ptr, ptr %9, align 8, !tbaa !57
  %80 = getelementptr inbounds nuw %struct.pm_token_t, ptr %79, i32 0, i32 2
  %81 = load ptr, ptr %80, align 8, !tbaa !44
  store ptr %81, ptr %78, align 8, !tbaa !153
  br label %82

82:                                               ; preds = %73, %70
  %83 = getelementptr inbounds nuw %struct.pm_defined_node, ptr %12, i32 0, i32 4
  %84 = load ptr, ptr %10, align 8, !tbaa !57
  call void @llvm.memcpy.p0.p0.i64(ptr align 8 %83, ptr align 8 %84, i64 16, i1 false), !tbaa.struct !241
  call void @llvm.memcpy.p0.p0.i64(ptr align 8 %15, ptr align 8 %12, i64 80, i1 false), !tbaa.struct !726
  %85 = load ptr, ptr %11, align 8, !tbaa !722
  call void @llvm.lifetime.end.p0(i64 8, ptr %11) #15
  ret ptr %85
}