; Function Attrs: nounwind sspstrong uwtable
define internal fastcc noalias nonnull ptr @pm_defined_node_create(ptr noundef captures(none) %0, ptr noundef nonnull readonly captures(none) %1, ptr noundef %2, ptr noundef nonnull readonly captures(none) %3, ptr noundef nonnull readonly captures(none) %4) unnamed_addr #1 {
  %6 = tail call noalias dereferenceable_or_null(80) ptr @calloc(i64 noundef 1, i64 noundef 80) #34
  %7 = icmp eq ptr %6, null
  br i1 %7, label %8, label %pm_node_alloc.exit

8:                                                ; preds = %5
  %9 = load ptr, ptr @stderr, align 8, !tbaa !105
  %10 = tail call i32 (ptr, i32, ptr, ...) @__fprintf_chk(ptr noundef %9, i32 noundef 1, ptr noundef nonnull @.str.94, i32 noundef 80) #31
  tail call void @abort() #35
  unreachable

pm_node_alloc.exit:                               ; preds = %5
  %11 = load i32, ptr %0, align 8, !tbaa !107
  %12 = add i32 %11, 1
  store i32 %12, ptr %0, align 8, !tbaa !107
  %13 = load ptr, ptr %4, align 8, !tbaa !350
  %14 = load i32, ptr %3, align 8, !tbaa !124
  %15 = icmp eq i32 %14, 3
  %. = select i1 %15, ptr %2, ptr %3
  %.in = getelementptr inbounds nuw i8, ptr %., i64 16
  %16 = load ptr, ptr %.in, align 8, !tbaa !14
  %17 = load i32, ptr %1, align 8, !tbaa !124
  %18 = icmp eq i32 %17, 3
  br i1 %18, label %24, label %19

19:                                               ; preds = %pm_node_alloc.exit
  %20 = getelementptr inbounds nuw i8, ptr %1, i64 8
  %21 = load ptr, ptr %20, align 8, !tbaa !125
  %22 = getelementptr inbounds nuw i8, ptr %1, i64 16
  %23 = load ptr, ptr %22, align 8, !tbaa !126
  br label %24

24:                                               ; preds = %pm_node_alloc.exit, %19
  %.sroa.6.0 = phi ptr [ %21, %19 ], [ null, %pm_node_alloc.exit ]
  %.sroa.8.0 = phi ptr [ %23, %19 ], [ null, %pm_node_alloc.exit ]
  br i1 %15, label %30, label %25

25:                                               ; preds = %24
  %26 = getelementptr inbounds nuw i8, ptr %3, i64 8
  %27 = load ptr, ptr %26, align 8, !tbaa !125
  %28 = getelementptr inbounds nuw i8, ptr %3, i64 16
  %29 = load ptr, ptr %28, align 8, !tbaa !126
  br label %30

30:                                               ; preds = %24, %25
  %.sroa.11.0 = phi ptr [ %27, %25 ], [ null, %24 ]
  %.sroa.13.0 = phi ptr [ %29, %25 ], [ null, %24 ]
  %.sroa.15.0..sroa_idx = getelementptr inbounds nuw i8, ptr %6, i64 64
  tail call void @llvm.memcpy.p0.p0.i64(ptr noundef nonnull align 8 dereferenceable(16) %.sroa.15.0..sroa_idx, ptr noundef nonnull align 8 dereferenceable(16) %4, i64 16, i1 false)
  store i16 46, ptr %6, align 8, !tbaa !108
  %.sroa.3.0..sroa_idx = getelementptr inbounds nuw i8, ptr %6, i64 4
  store i32 %12, ptr %.sroa.3.0..sroa_idx, align 4, !tbaa !7
  %.sroa.4.0..sroa_idx = getelementptr inbounds nuw i8, ptr %6, i64 8
  store ptr %13, ptr %.sroa.4.0..sroa_idx, align 8, !tbaa !14
  %.sroa.5.0..sroa_idx = getelementptr inbounds nuw i8, ptr %6, i64 16
  store ptr %16, ptr %.sroa.5.0..sroa_idx, align 8, !tbaa !14
  %.sroa.6.0..sroa_idx = getelementptr inbounds nuw i8, ptr %6, i64 24
  store ptr %.sroa.6.0, ptr %.sroa.6.0..sroa_idx, align 8, !tbaa !14
  %.sroa.8.0..sroa_idx = getelementptr inbounds nuw i8, ptr %6, i64 32
  store ptr %.sroa.8.0, ptr %.sroa.8.0..sroa_idx, align 8, !tbaa !14
  %.sroa.10.0..sroa_idx = getelementptr inbounds nuw i8, ptr %6, i64 40
  store ptr %2, ptr %.sroa.10.0..sroa_idx, align 8, !tbaa !103
  %.sroa.11.0..sroa_idx = getelementptr inbounds nuw i8, ptr %6, i64 48
  store ptr %.sroa.11.0, ptr %.sroa.11.0..sroa_idx, align 8, !tbaa !14
  %.sroa.13.0..sroa_idx = getelementptr inbounds nuw i8, ptr %6, i64 56
  store ptr %.sroa.13.0, ptr %.sroa.13.0..sroa_idx, align 8, !tbaa !14
  ret ptr %6
}